; Function Attrs: nofree nounwind memory(write, argmem: read, inaccessiblemem: readwrite) uwtable
define noalias noundef ptr @Rwt_ManGetPractical(ptr noundef readonly captures(none) %0) local_unnamed_addr #7 {
  %2 = load i32, ptr %0, align 8, !tbaa !52
  %3 = sext i32 %2 to i64
  %calloc = tail call ptr @calloc(i64 1, i64 %3)
  store i8 1, ptr %calloc, align 1, !tbaa !53
  br label %4

4:                                                ; preds = %1, %4
  %indvars.iv = phi i64 [ 1, %1 ], [ %indvars.iv.next, %4 ]
  %5 = getelementptr inbounds nuw [136 x i16], ptr @s_RwtPracticalClasses, i64 0, i64 %indvars.iv
  %6 = load i16, ptr %5, align 2, !tbaa !37
  %7 = zext i16 %6 to i64
  %8 = getelementptr inbounds nuw i8, ptr %calloc, i64 %7
  store i8 1, ptr %8, align 1, !tbaa !53
  %indvars.iv.next = add nuw nsw i64 %indvars.iv, 1
  %9 = icmp eq i64 %indvars.iv.next, 135
  br i1 %9, label %10, label %4

10:                                               ; preds = %4
  ret ptr %calloc
}